; Function Attrs: mustprogress uwtable
define internal void @_ZN12_GLOBAL__N_118handshaker_destroyEP14tsi_handshaker(ptr noundef %0) #3 {
  %2 = icmp eq ptr %0, null
  br i1 %2, label %4, label %3

3:                                                ; preds = %1
  tail call void @gpr_free(ptr noundef nonnull %0)
  br label %4

4:                                                ; preds = %1, %3
  ret void
}